target datalayout = "e-m:e-p270:32:32-p271:32:32-p272:64:64-i64:64-i128:128-f80:128-n8:16:32:64-S128"
target triple = "x86_64-pc-linux-gnu"

%struct.aom_codec_priv = type { ptr, i64, %struct.anon }
%struct.anon = type { %struct.aom_fixed_buf, i32, i32, %struct.aom_codec_cx_pkt }
%struct.aom_fixed_buf = type { ptr, i64 }
%struct.aom_codec_cx_pkt = type { i32, %union.anon.0 }
%union.anon.0 = type { %struct.aom_psnr_pkt }
%struct.aom_psnr_pkt = type { [4 x i32], [4 x i64], [4 x double], [4 x i32], [4 x i64], [4 x double] }
%struct.aom_codec_alg_priv = type { %struct.aom_codec_priv, %struct.aom_codec_dec_cfg, %struct.aom_codec_stream_info, %struct.aom_image, i32, i32, i32, ptr, i32, i32, i32, i32, i32, i32, i32, i32, %struct.EXTERNAL_REFERENCES, i32, i32, i32, ptr, %struct.aom_image, [4 x %struct.aom_codec_frame_buffer], i64, i32, ptr, ptr, ptr, ptr }
%struct.aom_codec_dec_cfg = type { i32, i32, i32, i32 }
%struct.aom_codec_stream_info = type { i32, i32, i32, i32, i32, i32 }
%struct.EXTERNAL_REFERENCES = type { [128 x %struct.yv12_buffer_config], i32 }
%struct.yv12_buffer_config = type { %union.anon.2, %union.anon.4, %union.anon.6, %union.anon.8, %union.anon.10, %union.anon.12, i32, [3 x ptr], ptr, i32, ptr, i64, i32, i64, i32, i32, i32, i32, i32, i32, i8, i32, i32, i32, i32, i32, i32, ptr }
%union.anon.2 = type { %struct.anon.3 }
%struct.anon.3 = type { i32, i32 }
%union.anon.4 = type { %struct.anon.5 }
%struct.anon.5 = type { i32, i32 }
%union.anon.6 = type { %struct.anon.7 }
%struct.anon.7 = type { i32, i32 }
%union.anon.8 = type { %struct.anon.9 }
%struct.anon.9 = type { i32, i32 }
%union.anon.10 = type { %struct.anon.11 }
%struct.anon.11 = type { i32, i32 }
%union.anon.12 = type { %struct.anon.13 }
%struct.anon.13 = type { ptr, ptr, ptr }
%struct.aom_image = type { i32, i32, i32, i32, i32, i32, i32, i32, i32, i32, i32, i32, i32, i32, i32, i32, [3 x ptr], [3 x i32], i64, i32, i32, i32, ptr, ptr, i32, i32, ptr, ptr }
%struct.aom_codec_frame_buffer = type { ptr, i64, ptr }
%struct.AVxWorker = type { ptr, i32, ptr, ptr, ptr, ptr, i32 }
%struct.FrameWorkerData = type { ptr, ptr, ptr, i64, ptr, i32, i32, i32 }
%struct.__va_list_tag = type { i32, i32, ptr, ptr }
%struct.av1_ref_frame = type { i32, i32, %struct.aom_image }

; Function Attrs: nounwind uwtable
define internal i32 @image2yuvconfig(ptr noundef %0, ptr noundef %1) #0 {
  %3 = alloca ptr, align 8
  %4 = alloca ptr, align 8
  %5 = alloca i32, align 4
  store ptr %0, ptr %3, align 8
  store ptr %1, ptr %4, align 8
  %6 = load ptr, ptr %3, align 8
  %7 = getelementptr inbounds nuw %struct.aom_image, ptr %6, i32 0, i32 16
  %8 = getelementptr inbounds [3 x ptr], ptr %7, i64 0, i64 0
  %9 = load ptr, ptr %8, align 8
  %10 = load ptr, ptr %4, align 8
  %11 = getelementptr inbounds nuw %struct.yv12_buffer_config, ptr %10, i32 0, i32 5
  %12 = getelementptr inbounds nuw %struct.anon.13, ptr %11, i32 0, i32 0
  store ptr %9, ptr %12, align 8
  %13 = load ptr, ptr %3, align 8
  %14 = getelementptr inbounds nuw %struct.aom_image, ptr %13, i32 0, i32 16
  %15 = getelementptr inbounds [3 x ptr], ptr %14, i64 0, i64 1
  %16 = load ptr, ptr %15, align 8
  %17 = load ptr, ptr %4, align 8
  %18 = getelementptr inbounds nuw %struct.yv12_buffer_config, ptr %17, i32 0, i32 5
  %19 = getelementptr inbounds nuw %struct.anon.13, ptr %18, i32 0, i32 1
  store ptr %16, ptr %19, align 8
  %20 = load ptr, ptr %3, align 8
  %21 = getelementptr inbounds nuw %struct.aom_image, ptr %20, i32 0, i32 16
  %22 = getelementptr inbounds [3 x ptr], ptr %21, i64 0, i64 2
  %23 = load ptr, ptr %22, align 8
  %24 = load ptr, ptr %4, align 8
  %25 = getelementptr inbounds nuw %struct.yv12_buffer_config, ptr %24, i32 0, i32 5
  %26 = getelementptr inbounds nuw %struct.anon.13, ptr %25, i32 0, i32 2
  store ptr %23, ptr %26, align 8
  %27 = load ptr, ptr %3, align 8
  %28 = getelementptr inbounds nuw %struct.aom_image, ptr %27, i32 0, i32 10
  %29 = load i32, ptr %28, align 8
  %30 = load ptr, ptr %4, align 8
  %31 = getelementptr inbounds nuw %struct.yv12_buffer_config, ptr %30, i32 0, i32 2
  %32 = getelementptr inbounds nuw %struct.anon.7, ptr %31, i32 0, i32 0
  store i32 %29, ptr %32, align 8
  %33 = load ptr, ptr %3, align 8
  %34 = getelementptr inbounds nuw %struct.aom_image, ptr %33, i32 0, i32 11
  %35 = load i32, ptr %34, align 4
  %36 = load ptr, ptr %4, align 8
  %37 = getelementptr inbounds nuw %struct.yv12_buffer_config, ptr %36, i32 0, i32 3
  %38 = getelementptr inbounds nuw %struct.anon.9, ptr %37, i32 0, i32 0
  store i32 %35, ptr %38, align 8
  %39 = load ptr, ptr %3, align 8
  %40 = getelementptr inbounds nuw %struct.aom_image, ptr %39, i32 0, i32 12
  %41 = load i32, ptr %40, align 8
  %42 = load ptr, ptr %4, align 8
  %43 = getelementptr inbounds nuw %struct.yv12_buffer_config, ptr %42, i32 0, i32 23
  store i32 %41, ptr %43, align 4
  %44 = load ptr, ptr %3, align 8
  %45 = getelementptr inbounds nuw %struct.aom_image, ptr %44, i32 0, i32 13
  %46 = load i32, ptr %45, align 4
  %47 = load ptr, ptr %4, align 8
  %48 = getelementptr inbounds nuw %struct.yv12_buffer_config, ptr %47, i32 0, i32 24
  store i32 %46, ptr %48, align 8
  %49 = load ptr, ptr %3, align 8
  %50 = getelementptr inbounds nuw %struct.aom_image, ptr %49, i32 0, i32 7
  %51 = load i32, ptr %50, align 4
  %52 = load ptr, ptr %4, align 8
  %53 = getelementptr inbounds nuw %struct.yv12_buffer_config, ptr %52, i32 0, i32 0
  %54 = getelementptr inbounds nuw %struct.anon.3, ptr %53, i32 0, i32 0
  store i32 %51, ptr %54, align 8
  %55 = load ptr, ptr %3, align 8
  %56 = getelementptr inbounds nuw %struct.aom_image, ptr %55, i32 0, i32 8
  %57 = load i32, ptr %56, align 8
  %58 = load ptr, ptr %4, align 8
  %59 = getelementptr inbounds nuw %struct.yv12_buffer_config, ptr %58, i32 0, i32 1
  %60 = getelementptr inbounds nuw %struct.anon.5, ptr %59, i32 0, i32 0
  store i32 %57, ptr %60, align 8
  %61 = load ptr, ptr %3, align 8
  %62 = getelementptr inbounds nuw %struct.aom_image, ptr %61, i32 0, i32 14
  %63 = load i32, ptr %62, align 8
  %64 = icmp eq i32 %63, 1
  br i1 %64, label %65, label %72

65:                                               ; preds = %2
  %66 = load ptr, ptr %4, align 8
  %67 = getelementptr inbounds nuw %struct.yv12_buffer_config, ptr %66, i32 0, i32 0
  %68 = getelementptr inbounds nuw %struct.anon.3, ptr %67, i32 0, i32 0
  %69 = load i32, ptr %68, align 8
  %70 = add nsw i32 1, %69
  %71 = sdiv i32 %70, 2
  br label %77

72:                                               ; preds = %2
  %73 = load ptr, ptr %4, align 8
  %74 = getelementptr inbounds nuw %struct.yv12_buffer_config, ptr %73, i32 0, i32 0
  %75 = getelementptr inbounds nuw %struct.anon.3, ptr %74, i32 0, i32 0
  %76 = load i32, ptr %75, align 8
  br label %77

77:                                               ; preds = %72, %65
  %78 = phi i32 [ %71, %65 ], [ %76, %72 ]
  %79 = load ptr, ptr %4, align 8
  %80 = getelementptr inbounds nuw %struct.yv12_buffer_config, ptr %79, i32 0, i32 0
  %81 = getelementptr inbounds nuw %struct.anon.3, ptr %80, i32 0, i32 1
  store i32 %78, ptr %81, align 4
  %82 = load ptr, ptr %3, align 8
  %83 = getelementptr inbounds nuw %struct.aom_image, ptr %82, i32 0, i32 15
  %84 = load i32, ptr %83, align 4
  %85 = icmp eq i32 %84, 1
  br i1 %85, label %86, label %93

86:                                               ; preds = %77
  %87 = load ptr, ptr %4, align 8
  %88 = getelementptr inbounds nuw %struct.yv12_buffer_config, ptr %87, i32 0, i32 1
  %89 = getelementptr inbounds nuw %struct.anon.5, ptr %88, i32 0, i32 0
  %90 = load i32, ptr %89, align 8
  %91 = add nsw i32 1, %90
  %92 = sdiv i32 %91, 2
  br label %98

93:                                               ; preds = %77
  %94 = load ptr, ptr %4, align 8
  %95 = getelementptr inbounds nuw %struct.yv12_buffer_config, ptr %94, i32 0, i32 1
  %96 = getelementptr inbounds nuw %struct.anon.5, ptr %95, i32 0, i32 0
  %97 = load i32, ptr %96, align 8
  br label %98

98:                                               ; preds = %93, %86
  %99 = phi i32 [ %92, %86 ], [ %97, %93 ]
  %100 = load ptr, ptr %4, align 8
  %101 = getelementptr inbounds nuw %struct.yv12_buffer_config, ptr %100, i32 0, i32 1
  %102 = getelementptr inbounds nuw %struct.anon.5, ptr %101, i32 0, i32 1
  store i32 %99, ptr %102, align 4
  %103 = load ptr, ptr %4, align 8
  %104 = getelementptr inbounds nuw %struct.yv12_buffer_config, ptr %103, i32 0, i32 0
  %105 = getelementptr inbounds nuw %struct.anon.3, ptr %104, i32 0, i32 1
  %106 = load i32, ptr %105, align 4
  %107 = load ptr, ptr %4, align 8
  %108 = getelementptr inbounds nuw %struct.yv12_buffer_config, ptr %107, i32 0, i32 2
  %109 = getelementptr inbounds nuw %struct.anon.7, ptr %108, i32 0, i32 1
  store i32 %106, ptr %109, align 4
  %110 = load ptr, ptr %4, align 8
  %111 = getelementptr inbounds nuw %struct.yv12_buffer_config, ptr %110, i32 0, i32 1
  %112 = getelementptr inbounds nuw %struct.anon.5, ptr %111, i32 0, i32 1
  %113 = load i32, ptr %112, align 4
  %114 = load ptr, ptr %4, align 8
  %115 = getelementptr inbounds nuw %struct.yv12_buffer_config, ptr %114, i32 0, i32 3
  %116 = getelementptr inbounds nuw %struct.anon.9, ptr %115, i32 0, i32 1
  store i32 %113, ptr %116, align 4
  %117 = load ptr, ptr %3, align 8
  %118 = getelementptr inbounds nuw %struct.aom_image, ptr %117, i32 0, i32 17
  %119 = getelementptr inbounds [3 x i32], ptr %118, i64 0, i64 0
  %120 = load i32, ptr %119, align 8
  %121 = load ptr, ptr %4, align 8
  %122 = getelementptr inbounds nuw %struct.yv12_buffer_config, ptr %121, i32 0, i32 4
  %123 = getelementptr inbounds nuw %struct.anon.11, ptr %122, i32 0, i32 0
  store i32 %120, ptr %123, align 8
  %124 = load ptr, ptr %3, align 8
  %125 = getelementptr inbounds nuw %struct.aom_image, ptr %124, i32 0, i32 17
  %126 = getelementptr inbounds [3 x i32], ptr %125, i64 0, i64 1
  %127 = load i32, ptr %126, align 4
  %128 = load ptr, ptr %4, align 8
  %129 = getelementptr inbounds nuw %struct.yv12_buffer_config, ptr %128, i32 0, i32 4
  %130 = getelementptr inbounds nuw %struct.anon.11, ptr %129, i32 0, i32 1
  store i32 %127, ptr %130, align 4
  %131 = load ptr, ptr %3, align 8
  %132 = getelementptr inbounds nuw %struct.aom_image, ptr %131, i32 0, i32 1
  %133 = load i32, ptr %132, align 4
  %134 = load ptr, ptr %4, align 8
  %135 = getelementptr inbounds nuw %struct.yv12_buffer_config, ptr %134, i32 0, i32 17
  store i32 %133, ptr %135, align 4
  %136 = load ptr, ptr %3, align 8
  %137 = getelementptr inbounds nuw %struct.aom_image, ptr %136, i32 0, i32 2
  %138 = load i32, ptr %137, align 8
  %139 = load ptr, ptr %4, align 8
  %140 = getelementptr inbounds nuw %struct.yv12_buffer_config, ptr %139, i32 0, i32 18
  store i32 %138, ptr %140, align 8
  %141 = load ptr, ptr %3, align 8
  %142 = getelementptr inbounds nuw %struct.aom_image, ptr %141, i32 0, i32 3
  %143 = load i32, ptr %142, align 4
  %144 = load ptr, ptr %4, align 8
  %145 = getelementptr inbounds nuw %struct.yv12_buffer_config, ptr %144, i32 0, i32 19
  store i32 %143, ptr %145, align 4
  %146 = load ptr, ptr %3, align 8
  %147 = getelementptr inbounds nuw %struct.aom_image, ptr %146, i32 0, i32 4
  %148 = load i32, ptr %147, align 8
  %149 = trunc i32 %148 to i8
  %150 = load ptr, ptr %4, align 8
  %151 = getelementptr inbounds nuw %struct.yv12_buffer_config, ptr %150, i32 0, i32 20
  store i8 %149, ptr %151, align 8
  %152 = load ptr, ptr %3, align 8
  %153 = getelementptr inbounds nuw %struct.aom_image, ptr %152, i32 0, i32 5
  %154 = load i32, ptr %153, align 4
  %155 = load ptr, ptr %4, align 8
  %156 = getelementptr inbounds nuw %struct.yv12_buffer_config, ptr %155, i32 0, i32 21
  store i32 %154, ptr %156, align 4
  %157 = load ptr, ptr %3, align 8
  %158 = getelementptr inbounds nuw %struct.aom_image, ptr %157, i32 0, i32 6
  %159 = load i32, ptr %158, align 8
  %160 = load ptr, ptr %4, align 8
  %161 = getelementptr inbounds nuw %struct.yv12_buffer_config, ptr %160, i32 0, i32 22
  store i32 %159, ptr %161, align 8
  %162 = load ptr, ptr %3, align 8
  %163 = getelementptr inbounds nuw %struct.aom_image, ptr %162, i32 0, i32 0
  %164 = load i32, ptr %163, align 8
  %165 = and i32 %164, 2048
  %166 = icmp ne i32 %165, 0
  br i1 %166, label %167, label %210

167:                                              ; preds = %98
  %168 = load ptr, ptr %4, align 8
  %169 = getelementptr inbounds nuw %struct.yv12_buffer_config, ptr %168, i32 0, i32 5
  %170 = getelementptr inbounds nuw %struct.anon.13, ptr %169, i32 0, i32 0
  %171 = load ptr, ptr %170, align 8
  %172 = ptrtoint ptr %171 to i64
  %173 = lshr i64 %172, 1
  %174 = inttoptr i64 %173 to ptr
  %175 = load ptr, ptr %4, align 8
  %176 = getelementptr inbounds nuw %struct.yv12_buffer_config, ptr %175, i32 0, i32 5
  %177 = getelementptr inbounds nuw %struct.anon.13, ptr %176, i32 0, i32 0
  store ptr %174, ptr %177, align 8
  %178 = load ptr, ptr %4, align 8
  %179 = getelementptr inbounds nuw %struct.yv12_buffer_config, ptr %178, i32 0, i32 5
  %180 = getelementptr inbounds nuw %struct.anon.13, ptr %179, i32 0, i32 1
  %181 = load ptr, ptr %180, align 8
  %182 = ptrtoint ptr %181 to i64
  %183 = lshr i64 %182, 1
  %184 = inttoptr i64 %183 to ptr
  %185 = load ptr, ptr %4, align 8
  %186 = getelementptr inbounds nuw %struct.yv12_buffer_config, ptr %185, i32 0, i32 5
  %187 = getelementptr inbounds nuw %struct.anon.13, ptr %186, i32 0, i32 1
  store ptr %184, ptr %187, align 8
  %188 = load ptr, ptr %4, align 8
  %189 = getelementptr inbounds nuw %struct.yv12_buffer_config, ptr %188, i32 0, i32 5
  %190 = getelementptr inbounds nuw %struct.anon.13, ptr %189, i32 0, i32 2
  %191 = load ptr, ptr %190, align 8
  %192 = ptrtoint ptr %191 to i64
  %193 = lshr i64 %192, 1
  %194 = inttoptr i64 %193 to ptr
  %195 = load ptr, ptr %4, align 8
  %196 = getelementptr inbounds nuw %struct.yv12_buffer_config, ptr %195, i32 0, i32 5
  %197 = getelementptr inbounds nuw %struct.anon.13, ptr %196, i32 0, i32 2
  store ptr %194, ptr %197, align 8
  %198 = load ptr, ptr %4, align 8
  %199 = getelementptr inbounds nuw %struct.yv12_buffer_config, ptr %198, i32 0, i32 4
  %200 = getelementptr inbounds nuw %struct.anon.11, ptr %199, i32 0, i32 0
  %201 = load i32, ptr %200, align 8
  %202 = ashr i32 %201, 1
  store i32 %202, ptr %200, align 8
  %203 = load ptr, ptr %4, align 8
  %204 = getelementptr inbounds nuw %struct.yv12_buffer_config, ptr %203, i32 0, i32 4
  %205 = getelementptr inbounds nuw %struct.anon.11, ptr %204, i32 0, i32 1
  %206 = load i32, ptr %205, align 4
  %207 = ashr i32 %206, 1
  store i32 %207, ptr %205, align 4
  %208 = load ptr, ptr %4, align 8
  %209 = getelementptr inbounds nuw %struct.yv12_buffer_config, ptr %208, i32 0, i32 26
  store i32 8, ptr %209, align 8
  br label %213

210:                                              ; preds = %98
  %211 = load ptr, ptr %4, align 8
  %212 = getelementptr inbounds nuw %struct.yv12_buffer_config, ptr %211, i32 0, i32 26
  store i32 0, ptr %212, align 8
  br label %213

213:                                              ; preds = %210, %167
  %214 = load ptr, ptr %4, align 8
  %215 = getelementptr inbounds nuw %struct.yv12_buffer_config, ptr %214, i32 0, i32 4
  %216 = getelementptr inbounds nuw %struct.anon.11, ptr %215, i32 0, i32 0
  %217 = load i32, ptr %216, align 8
  %218 = load ptr, ptr %3, align 8
  %219 = getelementptr inbounds nuw %struct.aom_image, ptr %218, i32 0, i32 7
  %220 = load i32, ptr %219, align 4
  %221 = add i32 %220, 31
  %222 = and i32 %221, -32
  %223 = sub nsw i32 %217, %222
  %224 = sdiv i32 %223, 2
  store i32 %224, ptr %5, align 4
  %225 = load i32, ptr %5, align 4
  %226 = icmp slt i32 %225, 0
  br i1 %226, label %227, label %228

227:                                              ; preds = %213
  br label %230

228:                                              ; preds = %213
  %229 = load i32, ptr %5, align 4
  br label %230

230:                                              ; preds = %228, %227
  %231 = phi i32 [ 0, %227 ], [ %229, %228 ]
  %232 = load ptr, ptr %4, align 8
  %233 = getelementptr inbounds nuw %struct.yv12_buffer_config, ptr %232, i32 0, i32 12
  store i32 %231, ptr %233, align 8
  %234 = load ptr, ptr %3, align 8
  %235 = getelementptr inbounds nuw %struct.aom_image, ptr %234, i32 0, i32 14
  %236 = load i32, ptr %235, align 8
  %237 = load ptr, ptr %4, align 8
  %238 = getelementptr inbounds nuw %struct.yv12_buffer_config, ptr %237, i32 0, i32 14
  store i32 %236, ptr %238, align 8
  %239 = load ptr, ptr %3, align 8
  %240 = getelementptr inbounds nuw %struct.aom_image, ptr %239, i32 0, i32 15
  %241 = load i32, ptr %240, align 4
  %242 = load ptr, ptr %4, align 8
  %243 = getelementptr inbounds nuw %struct.yv12_buffer_config, ptr %242, i32 0, i32 15
  store i32 %241, ptr %243, align 4
  %244 = load ptr, ptr %3, align 8
  %245 = getelementptr inbounds nuw %struct.aom_image, ptr %244, i32 0, i32 26
  %246 = load ptr, ptr %245, align 8
  %247 = load ptr, ptr %4, align 8
  %248 = getelementptr inbounds nuw %struct.yv12_buffer_config, ptr %247, i32 0, i32 27
  store ptr %246, ptr %248, align 8
  ret i32 0
}

; Function Attrs: nounwind uwtable
define internal i32 @ctrl_copy_reference(ptr noundef %0, ptr noundef %1) #0 {
  %3 = alloca i32, align 4
  %4 = alloca ptr, align 8
  %5 = alloca ptr, align 8
  %6 = alloca ptr, align 8
  %7 = alloca %struct.yv12_buffer_config, align 8
  %8 = alloca ptr, align 8
  %9 = alloca ptr, align 8
  store ptr %0, ptr %4, align 8
  store ptr %1, ptr %5, align 8
  %10 = load ptr, ptr %5, align 8
  %11 = getelementptr inbounds nuw %struct.__va_list_tag, ptr %10, i32 0, i32 0
  %12 = load i32, ptr %11, align 8
  %13 = icmp ule i32 %12, 40
  br i1 %13, label %14, label %19

14:                                               ; preds = %2
  %15 = getelementptr inbounds nuw %struct.__va_list_tag, ptr %10, i32 0, i32 3
  %16 = load ptr, ptr %15, align 8
  %17 = getelementptr i8, ptr %16, i32 %12
  %18 = add i32 %12, 8
  store i32 %18, ptr %11, align 8
  br label %23

19:                                               ; preds = %2
  %20 = getelementptr inbounds nuw %struct.__va_list_tag, ptr %10, i32 0, i32 2
  %21 = load ptr, ptr %20, align 8
  %22 = getelementptr i8, ptr %21, i32 8
  store ptr %22, ptr %20, align 8
  br label %23

23:                                               ; preds = %19, %14
  %24 = phi ptr [ %17, %14 ], [ %21, %19 ]
  %25 = load ptr, ptr %24, align 8
  store ptr %25, ptr %6, align 8
  %26 = load ptr, ptr %6, align 8
  %27 = icmp ne ptr %26, null
  br i1 %27, label %28, label %45

28:                                               ; preds = %23
  %29 = load ptr, ptr %4, align 8
  %30 = getelementptr inbounds nuw %struct.aom_codec_alg_priv, ptr %29, i32 0, i32 20
  %31 = load ptr, ptr %30, align 8
  store ptr %31, ptr %8, align 8
  %32 = load ptr, ptr %8, align 8
  %33 = getelementptr inbounds nuw %struct.AVxWorker, ptr %32, i32 0, i32 4
  %34 = load ptr, ptr %33, align 8
  store ptr %34, ptr %9, align 8
  %35 = load ptr, ptr %6, align 8
  %36 = getelementptr inbounds nuw %struct.av1_ref_frame, ptr %35, i32 0, i32 2
  %37 = call i32 @image2yuvconfig(ptr noundef %36, ptr noundef %7)
  %38 = load ptr, ptr %9, align 8
  %39 = getelementptr inbounds nuw %struct.FrameWorkerData, ptr %38, i32 0, i32 0
  %40 = load ptr, ptr %39, align 8
  %41 = load ptr, ptr %6, align 8
  %42 = getelementptr inbounds nuw %struct.av1_ref_frame, ptr %41, i32 0, i32 0
  %43 = load i32, ptr %42, align 8
  %44 = call i32 @av1_copy_reference_dec(ptr noundef %40, i32 noundef %43, ptr noundef %7)
  store i32 %44, ptr %3, align 4
  br label %46

45:                                               ; preds = %23
  store i32 8, ptr %3, align 4
  br label %46

46:                                               ; preds = %45, %28
  %47 = load i32, ptr %3, align 4
  ret i32 %47
}