; Function Attrs: nounwind uwtable
define internal i32 @ctrl_copy_reference(ptr nocapture noundef readonly %0, ptr nocapture noundef %1) #0 {
  %3 = alloca %struct.yv12_buffer_config, align 8
  %4 = load i32, ptr %1, align 8
  %5 = icmp ult i32 %4, 41
  br i1 %5, label %6, label %12

6:                                                ; preds = %2
  %7 = getelementptr inbounds nuw i8, ptr %1, i64 16
  %8 = load ptr, ptr %7, align 8
  %9 = zext nneg i32 %4 to i64
  %10 = getelementptr i8, ptr %8, i64 %9
  %11 = add nuw nsw i32 %4, 8
  store i32 %11, ptr %1, align 8
  br label %16

12:                                               ; preds = %2
  %13 = getelementptr inbounds nuw i8, ptr %1, i64 8
  %14 = load ptr, ptr %13, align 8
  %15 = getelementptr i8, ptr %14, i64 8
  store ptr %15, ptr %13, align 8
  br label %16

16:                                               ; preds = %12, %6
  %17 = phi ptr [ %10, %6 ], [ %14, %12 ]
  %18 = load ptr, ptr %17, align 8
  %.not = icmp eq ptr %18, null
  br i1 %.not, label %126, label %19

19:                                               ; preds = %16
  %20 = getelementptr inbounds nuw i8, ptr %0, i64 27120
  %21 = load ptr, ptr %20, align 8
  %22 = getelementptr inbounds nuw i8, ptr %21, i64 32
  %23 = load ptr, ptr %22, align 8
  %24 = getelementptr inbounds nuw i8, ptr %18, i64 8
  %25 = getelementptr inbounds i8, ptr %18, i64 72
  %26 = load ptr, ptr %25, align 8
  %27 = getelementptr inbounds nuw i8, ptr %3, i64 40
  store ptr %26, ptr %27, align 8
  %28 = getelementptr inbounds i8, ptr %18, i64 80
  %29 = load ptr, ptr %28, align 8
  %30 = getelementptr inbounds i8, ptr %3, i64 48
  store ptr %29, ptr %30, align 8
  %31 = getelementptr inbounds i8, ptr %18, i64 88
  %32 = load ptr, ptr %31, align 8
  %33 = getelementptr inbounds i8, ptr %3, i64 56
  store ptr %32, ptr %33, align 8
  %34 = getelementptr inbounds i8, ptr %18, i64 48
  %35 = load i32, ptr %34, align 8
  %36 = getelementptr inbounds nuw i8, ptr %3, i64 16
  store i32 %35, ptr %36, align 8
  %37 = getelementptr inbounds i8, ptr %18, i64 52
  %38 = load i32, ptr %37, align 4
  %39 = getelementptr inbounds nuw i8, ptr %3, i64 24
  store i32 %38, ptr %39, align 8
  %40 = getelementptr inbounds i8, ptr %18, i64 56
  %41 = load i32, ptr %40, align 8
  %42 = getelementptr inbounds nuw i8, ptr %3, i64 180
  store i32 %41, ptr %42, align 4
  %43 = getelementptr inbounds i8, ptr %18, i64 60
  %44 = load i32, ptr %43, align 4
  %45 = getelementptr inbounds nuw i8, ptr %3, i64 184
  store i32 %44, ptr %45, align 8
  %46 = getelementptr inbounds i8, ptr %18, i64 36
  %47 = load i32, ptr %46, align 4
  store i32 %47, ptr %3, align 8
  %48 = getelementptr inbounds i8, ptr %18, i64 40
  %49 = load i32, ptr %48, align 8
  %50 = getelementptr inbounds nuw i8, ptr %3, i64 8
  store i32 %49, ptr %50, align 8
  %51 = getelementptr inbounds i8, ptr %18, i64 64
  %52 = load i32, ptr %51, align 8
  %53 = icmp eq i32 %52, 1
  br i1 %53, label %54, label %57

54:                                               ; preds = %19
  %55 = add nsw i32 %47, 1
  %56 = sdiv i32 %55, 2
  br label %57

57:                                               ; preds = %54, %19
  %58 = phi i32 [ %56, %54 ], [ %47, %19 ]
  %59 = getelementptr inbounds nuw i8, ptr %3, i64 4
  store i32 %58, ptr %59, align 4
  %60 = getelementptr inbounds i8, ptr %18, i64 68
  %61 = load i32, ptr %60, align 4
  %62 = icmp eq i32 %61, 1
  br i1 %62, label %63, label %66

63:                                               ; preds = %57
  %64 = add nsw i32 %49, 1
  %65 = sdiv i32 %64, 2
  br label %66

66:                                               ; preds = %63, %57
  %67 = phi i32 [ %65, %63 ], [ %49, %57 ]
  %68 = getelementptr inbounds i8, ptr %3, i64 12
  store i32 %67, ptr %68, align 4
  %69 = getelementptr inbounds i8, ptr %3, i64 20
  store i32 %58, ptr %69, align 4
  %70 = getelementptr inbounds i8, ptr %3, i64 28
  store i32 %67, ptr %70, align 4
  %71 = getelementptr inbounds i8, ptr %18, i64 96
  %72 = load i32, ptr %71, align 8
  %73 = getelementptr inbounds nuw i8, ptr %3, i64 32
  store i32 %72, ptr %73, align 8
  %74 = getelementptr inbounds i8, ptr %18, i64 100
  %75 = load i32, ptr %74, align 4
  %76 = getelementptr inbounds i8, ptr %3, i64 36
  store i32 %75, ptr %76, align 4
  %77 = getelementptr inbounds i8, ptr %18, i64 12
  %78 = load i32, ptr %77, align 4
  %79 = getelementptr inbounds nuw i8, ptr %3, i64 156
  store i32 %78, ptr %79, align 4
  %80 = getelementptr inbounds i8, ptr %18, i64 16
  %81 = load i32, ptr %80, align 8
  %82 = getelementptr inbounds nuw i8, ptr %3, i64 160
  store i32 %81, ptr %82, align 8
  %83 = getelementptr inbounds i8, ptr %18, i64 20
  %84 = load i32, ptr %83, align 4
  %85 = getelementptr inbounds nuw i8, ptr %3, i64 164
  store i32 %84, ptr %85, align 4
  %86 = getelementptr inbounds i8, ptr %18, i64 24
  %87 = load i32, ptr %86, align 8
  %88 = trunc i32 %87 to i8
  %89 = getelementptr inbounds nuw i8, ptr %3, i64 168
  store i8 %88, ptr %89, align 8
  %90 = getelementptr inbounds i8, ptr %18, i64 28
  %91 = load i32, ptr %90, align 4
  %92 = getelementptr inbounds nuw i8, ptr %3, i64 172
  store i32 %91, ptr %92, align 4
  %93 = getelementptr inbounds i8, ptr %18, i64 32
  %94 = load i32, ptr %93, align 8
  %95 = getelementptr inbounds nuw i8, ptr %3, i64 176
  store i32 %94, ptr %95, align 8
  %96 = load i32, ptr %24, align 8
  %97 = and i32 %96, 2048
  %.not.i = icmp eq i32 %97, 0
  br i1 %.not.i, label %image2yuvconfig.exit, label %98

98:                                               ; preds = %66
  %99 = ptrtoint ptr %26 to i64
  %100 = lshr i64 %99, 1
  %101 = inttoptr i64 %100 to ptr
  store ptr %101, ptr %27, align 8
  %102 = ptrtoint ptr %29 to i64
  %103 = lshr i64 %102, 1
  %104 = inttoptr i64 %103 to ptr
  store ptr %104, ptr %30, align 8
  %105 = ptrtoint ptr %32 to i64
  %106 = lshr i64 %105, 1
  %107 = inttoptr i64 %106 to ptr
  store ptr %107, ptr %33, align 8
  %108 = ashr i32 %72, 1
  store i32 %108, ptr %73, align 8
  %109 = ashr i32 %75, 1
  store i32 %109, ptr %76, align 4
  br label %image2yuvconfig.exit

image2yuvconfig.exit:                             ; preds = %66, %98
  %110 = phi i32 [ %108, %98 ], [ %72, %66 ]
  %.sink.i = phi i32 [ 8, %98 ], [ 0, %66 ]
  %111 = getelementptr inbounds nuw i8, ptr %3, i64 192
  store i32 %.sink.i, ptr %111, align 8
  %112 = add i32 %47, 31
  %113 = and i32 %112, -32
  %114 = sub nsw i32 %110, %113
  %115 = sdiv i32 %114, 2
  %116 = tail call i32 @llvm.smax.i32(i32 %115, i32 0)
  %117 = getelementptr inbounds nuw i8, ptr %3, i64 128
  store i32 %116, ptr %117, align 8
  %118 = getelementptr inbounds nuw i8, ptr %3, i64 144
  store i32 %52, ptr %118, align 8
  %119 = getelementptr inbounds nuw i8, ptr %3, i64 148
  store i32 %61, ptr %119, align 4
  %120 = getelementptr inbounds i8, ptr %18, i64 160
  %121 = load ptr, ptr %120, align 8
  %122 = getelementptr inbounds nuw i8, ptr %3, i64 200
  store ptr %121, ptr %122, align 8
  %123 = load ptr, ptr %23, align 8
  %124 = load i32, ptr %18, align 8
  %125 = call i32 @av1_copy_reference_dec(ptr noundef %123, i32 noundef %124, ptr noundef nonnull %3) #12
  br label %126

126:                                              ; preds = %16, %image2yuvconfig.exit
  %.0 = phi i32 [ %125, %image2yuvconfig.exit ], [ 8, %16 ]
  ret i32 %.0
}